target datalayout = "e-m:e-p270:32:32-p271:32:32-p272:64:64-i64:64-i128:128-f80:128-n8:16:32:64-S128"
target triple = "x86_64-pc-linux-gnu"

%struct.instanceLink = type { i32, i32, i32, ptr, ptr, i64, i64, i64, i64, i64, i64, i64, i64 }
%struct.redisAsyncContext = type { %struct.redisContext, i32, ptr, ptr, ptr, %struct.anon.2, ptr, ptr, ptr, %struct.redisCallbackList, ptr, i64, %struct.anon.3, ptr }
%struct.redisContext = type { ptr, i32, [128 x i8], i32, i32, ptr, ptr, i32, ptr, ptr, %struct.anon.0, %struct.anon.1, ptr, i64, ptr, ptr, ptr, ptr }
%struct.anon.0 = type { ptr, ptr, i32 }
%struct.anon.1 = type { ptr }
%struct.anon.2 = type { ptr, ptr, ptr, ptr, ptr, ptr, ptr }
%struct.redisCallbackList = type { ptr, ptr }
%struct.anon.3 = type { %struct.redisCallbackList, ptr, ptr, i32 }

; Function Attrs: nounwind uwtable
define dso_local void @instanceLinkConnectionError(ptr noundef %0) #0 {
  %2 = alloca ptr, align 8
  %3 = alloca ptr, align 8
  %4 = alloca i32, align 4
  %5 = alloca i32, align 4
  store ptr %0, ptr %2, align 8, !tbaa !145
  call void @llvm.lifetime.start.p0(i64 8, ptr %3) #16
  %6 = load ptr, ptr %2, align 8, !tbaa !145
  %7 = getelementptr inbounds nuw %struct.redisAsyncContext, ptr %6, i32 0, i32 3
  %8 = load ptr, ptr %7, align 8, !tbaa !146
  store ptr %8, ptr %3, align 8, !tbaa !129
  call void @llvm.lifetime.start.p0(i64 4, ptr %4) #16
  %9 = load ptr, ptr %3, align 8, !tbaa !129
  %10 = icmp ne ptr %9, null
  br i1 %10, label %12, label %11

11:                                               ; preds = %1
  store i32 1, ptr %5, align 4
  br label %30

12:                                               ; preds = %1
  %13 = load ptr, ptr %3, align 8, !tbaa !129
  %14 = getelementptr inbounds nuw %struct.instanceLink, ptr %13, i32 0, i32 4
  %15 = load ptr, ptr %14, align 8, !tbaa !136
  %16 = load ptr, ptr %2, align 8, !tbaa !145
  %17 = icmp eq ptr %15, %16
  %18 = zext i1 %17 to i32
  store i32 %18, ptr %4, align 4, !tbaa !82
  %19 = load i32, ptr %4, align 4, !tbaa !82
  %20 = icmp ne i32 %19, 0
  br i1 %20, label %21, label %24

21:                                               ; preds = %12
  %22 = load ptr, ptr %3, align 8, !tbaa !129
  %23 = getelementptr inbounds nuw %struct.instanceLink, ptr %22, i32 0, i32 4
  store ptr null, ptr %23, align 8, !tbaa !136
  br label %27

24:                                               ; preds = %12
  %25 = load ptr, ptr %3, align 8, !tbaa !129
  %26 = getelementptr inbounds nuw %struct.instanceLink, ptr %25, i32 0, i32 3
  store ptr null, ptr %26, align 8, !tbaa !135
  br label %27

27:                                               ; preds = %24, %21
  %28 = load ptr, ptr %3, align 8, !tbaa !129
  %29 = getelementptr inbounds nuw %struct.instanceLink, ptr %28, i32 0, i32 1
  store i32 1, ptr %29, align 4, !tbaa !133
  store i32 0, ptr %5, align 4
  br label %30

30:                                               ; preds = %27, %11
  call void @llvm.lifetime.end.p0(i64 4, ptr %4) #16
  call void @llvm.lifetime.end.p0(i64 8, ptr %3) #16
  %31 = load i32, ptr %5, align 4
  switch i32 %31, label %33 [
    i32 0, label %32
    i32 1, label %32
  ]

32:                                               ; preds = %30, %30
  ret void

33:                                               ; preds = %30
  unreachable
}