; Function Attrs: mustprogress nofree norecurse nosync nounwind willreturn memory(readwrite, inaccessiblemem: none) uwtable
define dso_local void @instanceLinkConnectionError(ptr noundef readonly captures(address) %0) local_unnamed_addr #20 {
  %2 = getelementptr inbounds nuw i8, ptr %0, i64 288
  %3 = load ptr, ptr %2, align 8, !tbaa !126
  %.not = icmp eq ptr %3, null
  br i1 %.not, label %13, label %4

4:                                                ; preds = %1
  %5 = getelementptr inbounds nuw i8, ptr %3, i64 24
  %6 = load ptr, ptr %5, align 8, !tbaa !125
  %7 = icmp eq ptr %6, %0
  br i1 %7, label %8, label %9

8:                                                ; preds = %4
  store ptr null, ptr %5, align 8, !tbaa !125
  br label %11

9:                                                ; preds = %4
  %10 = getelementptr inbounds nuw i8, ptr %3, i64 16
  store ptr null, ptr %10, align 8, !tbaa !124
  br label %11

11:                                               ; preds = %9, %8
  %12 = getelementptr inbounds nuw i8, ptr %3, i64 4
  store i32 1, ptr %12, align 4, !tbaa !117
  br label %13

13:                                               ; preds = %1, %11
  ret void
}